target datalayout = "e-m:e-p270:32:32-p271:32:32-p272:64:64-i64:64-i128:128-f80:128-n8:16:32:64-S128"
target triple = "x86_64-pc-linux-gnu"

%struct.object_id = type { [32 x i8], i32 }
%struct.object = type { i32, %struct.object_id }

@cruft_expiration = internal global i64 0, align 8

; Function Attrs: nounwind uwtable
define internal void @show_cruft_object(ptr noundef %0, ptr noundef %1, ptr noundef %2) #0 {
  %4 = alloca ptr, align 8
  %5 = alloca ptr, align 8
  %6 = alloca ptr, align 8
  store ptr %0, ptr %4, align 8, !tbaa !171
  store ptr %1, ptr %5, align 8, !tbaa !24
  store ptr %2, ptr %6, align 8, !tbaa !134
  %7 = load ptr, ptr %4, align 8, !tbaa !171
  %8 = getelementptr inbounds nuw %struct.object, ptr %7, i32 0, i32 1
  %9 = load ptr, ptr %4, align 8, !tbaa !171
  %10 = load i32, ptr %9, align 4
  %11 = lshr i32 %10, 1
  %12 = and i32 %11, 7
  %13 = load ptr, ptr %5, align 8, !tbaa !24
  %14 = load i64, ptr @cruft_expiration, align 8, !tbaa !13
  %15 = trunc i64 %14 to i32
  call void @add_cruft_object_entry(ptr noundef %8, i32 noundef %12, ptr noundef null, i64 noundef 0, ptr noundef %13, i32 noundef %15)
  ret void
}

; Function Attrs: nounwind uwtable
define internal void @show_cruft_commit(ptr noundef %0, ptr noundef %1) #0 {
  %3 = alloca ptr, align 8
  %4 = alloca ptr, align 8
  store ptr %0, ptr %3, align 8, !tbaa !169
  store ptr %1, ptr %4, align 8, !tbaa !134
  %5 = load ptr, ptr %3, align 8, !tbaa !169
  %6 = load ptr, ptr %4, align 8, !tbaa !134
  call void @show_cruft_object(ptr noundef %5, ptr noundef null, ptr noundef %6)
  ret void
}