; Function Attrs: nounwind uwtable
define internal void @show_cruft_commit(ptr noundef %0, ptr readnone captures(none) %1) #0 {
  %3 = getelementptr inbounds nuw i8, ptr %0, i64 4
  %4 = load i32, ptr %0, align 4
  %5 = lshr i32 %4, 1
  %6 = and i32 %5, 7
  %7 = load i64, ptr @cruft_expiration, align 8, !tbaa !28
  %8 = trunc i64 %7 to i32
  tail call fastcc void @add_cruft_object_entry(ptr noundef nonnull %3, i32 noundef %6, ptr noundef null, i64 noundef 0, ptr noundef null, i32 noundef %8)
  ret void
}